; Function Attrs: nounwind uwtable
define range(i32 -1, 1) i32 @H5O_pline_set_version(ptr noundef %0, ptr nocapture noundef %1) local_unnamed_addr #0 {
  %3 = getelementptr inbounds i8, ptr %1, i64 40
  %4 = load i32, ptr %3, align 8
  %5 = tail call i32 @H5F_get_low_bound(ptr noundef %0) #11
  %6 = sext i32 %5 to i64
  %7 = getelementptr inbounds [6 x i32], ptr @H5O_pline_ver_bounds, i64 0, i64 %6
  %8 = load i32, ptr %7, align 4
  %9 = icmp ugt i32 %4, %8
  br i1 %9, label %14, label %10

10:                                               ; preds = %2
  %11 = tail call i32 @H5F_get_low_bound(ptr noundef %0) #11
  %12 = sext i32 %11 to i64
  %13 = getelementptr inbounds [6 x i32], ptr @H5O_pline_ver_bounds, i64 0, i64 %12
  br label %14

14:                                               ; preds = %2, %10
  %.in = phi ptr [ %13, %10 ], [ %3, %2 ]
  %15 = load i32, ptr %.in, align 4
  %16 = tail call i32 @H5F_get_high_bound(ptr noundef %0) #11
  %17 = sext i32 %16 to i64
  %18 = getelementptr inbounds [6 x i32], ptr @H5O_pline_ver_bounds, i64 0, i64 %17
  %19 = load i32, ptr %18, align 4
  %20 = icmp ugt i32 %15, %19
  br i1 %20, label %21, label %25

21:                                               ; preds = %14
  %22 = load i64, ptr @H5E_PLINE_g, align 8
  %23 = load i64, ptr @H5E_BADRANGE_g, align 8
  %24 = tail call i32 (ptr, ptr, i32, i64, i64, ptr, ...) @H5E_printf_stack(ptr noundef nonnull @.str.2, ptr noundef nonnull @__func__.H5O_pline_set_version, i32 noundef 708, i64 noundef %22, i64 noundef %23, ptr noundef nonnull @.str.3) #11
  br label %26

25:                                               ; preds = %14
  store i32 %15, ptr %3, align 8
  br label %26

26:                                               ; preds = %25, %21
  %.0 = phi i32 [ -1, %21 ], [ 0, %25 ]
  ret i32 %.0
}